; Function Attrs: mustprogress nounwind uwtable
define dso_local ptr @LLVMGetInitializer(ptr noundef nonnull %0) local_unnamed_addr #0 {
  %2 = tail call noundef zeroext i1 @_ZNK4llvm11GlobalValue13isDeclarationEv(ptr noundef nonnull align 8 dereferenceable(81) %0) #35
  br i1 %2, label %6, label %3

3:                                                ; preds = %1
  %4 = getelementptr inbounds i8, ptr %0, i64 -32
  %5 = load ptr, ptr %4, align 8
  br label %6

6:                                                ; preds = %1, %3
  %.0 = phi ptr [ %5, %3 ], [ null, %1 ]
  ret ptr %.0
}